target datalayout = "e-m:e-p270:32:32-p271:32:32-p272:64:64-i64:64-i128:128-f80:128-n8:16:32:64-S128"
target triple = "x86_64-pc-linux-gnu"

%struct.bitmap = type { ptr, i64 }

; Function Attrs: nounwind uwtable
define dso_local i32 @bitmap_is_subset(ptr noundef %0, ptr noundef %1) #0 {
  %3 = alloca i32, align 4
  %4 = alloca ptr, align 8
  %5 = alloca ptr, align 8
  %6 = alloca i64, align 8
  %7 = alloca i64, align 8
  %8 = alloca i32, align 4
  store ptr %0, ptr %4, align 8, !tbaa !8
  store ptr %1, ptr %5, align 8, !tbaa !8
  call void @llvm.lifetime.start.p0(i64 8, ptr %6) #8
  call void @llvm.lifetime.start.p0(i64 8, ptr %7) #8
  %9 = load ptr, ptr %4, align 8, !tbaa !8
  %10 = getelementptr inbounds nuw %struct.bitmap, ptr %9, i32 0, i32 1
  %11 = load i64, ptr %10, align 8, !tbaa !14
  %12 = load ptr, ptr %5, align 8, !tbaa !8
  %13 = getelementptr inbounds nuw %struct.bitmap, ptr %12, i32 0, i32 1
  %14 = load i64, ptr %13, align 8, !tbaa !14
  %15 = icmp ult i64 %11, %14
  br i1 %15, label %16, label %20

16:                                               ; preds = %2
  %17 = load ptr, ptr %4, align 8, !tbaa !8
  %18 = getelementptr inbounds nuw %struct.bitmap, ptr %17, i32 0, i32 1
  %19 = load i64, ptr %18, align 8, !tbaa !14
  store i64 %19, ptr %6, align 8, !tbaa !4
  br label %45

20:                                               ; preds = %2
  %21 = load ptr, ptr %5, align 8, !tbaa !8
  %22 = getelementptr inbounds nuw %struct.bitmap, ptr %21, i32 0, i32 1
  %23 = load i64, ptr %22, align 8, !tbaa !14
  store i64 %23, ptr %6, align 8, !tbaa !4
  %24 = load i64, ptr %6, align 8, !tbaa !4
  store i64 %24, ptr %7, align 8, !tbaa !4
  br label %25

25:                                               ; preds = %41, %20
  %26 = load i64, ptr %7, align 8, !tbaa !4
  %27 = load ptr, ptr %4, align 8, !tbaa !8
  %28 = getelementptr inbounds nuw %struct.bitmap, ptr %27, i32 0, i32 1
  %29 = load i64, ptr %28, align 8, !tbaa !14
  %30 = icmp ult i64 %26, %29
  br i1 %30, label %31, label %44

31:                                               ; preds = %25
  %32 = load ptr, ptr %4, align 8, !tbaa !8
  %33 = getelementptr inbounds nuw %struct.bitmap, ptr %32, i32 0, i32 0
  %34 = load ptr, ptr %33, align 8, !tbaa !11
  %35 = load i64, ptr %7, align 8, !tbaa !4
  %36 = getelementptr inbounds nuw i64, ptr %34, i64 %35
  %37 = load i64, ptr %36, align 8, !tbaa !4
  %38 = icmp ne i64 %37, 0
  br i1 %38, label %39, label %40

39:                                               ; preds = %31
  store i32 1, ptr %3, align 4
  store i32 1, ptr %8, align 4
  br label %72

40:                                               ; preds = %31
  br label %41

41:                                               ; preds = %40
  %42 = load i64, ptr %7, align 8, !tbaa !4
  %43 = add i64 %42, 1
  store i64 %43, ptr %7, align 8, !tbaa !4
  br label %25, !llvm.loop !35

44:                                               ; preds = %25
  br label %45

45:                                               ; preds = %44, %16
  store i64 0, ptr %7, align 8, !tbaa !4
  br label %46

46:                                               ; preds = %68, %45
  %47 = load i64, ptr %7, align 8, !tbaa !4
  %48 = load i64, ptr %6, align 8, !tbaa !4
  %49 = icmp ult i64 %47, %48
  br i1 %49, label %50, label %71

50:                                               ; preds = %46
  %51 = load ptr, ptr %4, align 8, !tbaa !8
  %52 = getelementptr inbounds nuw %struct.bitmap, ptr %51, i32 0, i32 0
  %53 = load ptr, ptr %52, align 8, !tbaa !11
  %54 = load i64, ptr %7, align 8, !tbaa !4
  %55 = getelementptr inbounds nuw i64, ptr %53, i64 %54
  %56 = load i64, ptr %55, align 8, !tbaa !4
  %57 = load ptr, ptr %5, align 8, !tbaa !8
  %58 = getelementptr inbounds nuw %struct.bitmap, ptr %57, i32 0, i32 0
  %59 = load ptr, ptr %58, align 8, !tbaa !11
  %60 = load i64, ptr %7, align 8, !tbaa !4
  %61 = getelementptr inbounds nuw i64, ptr %59, i64 %60
  %62 = load i64, ptr %61, align 8, !tbaa !4
  %63 = xor i64 %62, -1
  %64 = and i64 %56, %63
  %65 = icmp ne i64 %64, 0
  br i1 %65, label %66, label %67

66:                                               ; preds = %50
  store i32 1, ptr %3, align 4
  store i32 1, ptr %8, align 4
  br label %72

67:                                               ; preds = %50
  br label %68

68:                                               ; preds = %67
  %69 = load i64, ptr %7, align 8, !tbaa !4
  %70 = add i64 %69, 1
  store i64 %70, ptr %7, align 8, !tbaa !4
  br label %46, !llvm.loop !36

71:                                               ; preds = %46
  store i32 0, ptr %3, align 4
  store i32 1, ptr %8, align 4
  br label %72

72:                                               ; preds = %71, %66, %39
  call void @llvm.lifetime.end.p0(i64 8, ptr %7) #8
  call void @llvm.lifetime.end.p0(i64 8, ptr %6) #8
  %73 = load i32, ptr %3, align 4
  ret i32 %73
}