; Function Attrs: nofree norecurse nosync nounwind memory(read, inaccessiblemem: none) uwtable
define dso_local range(i32 0, 2) i32 @bitmap_is_subset(ptr noundef readonly captures(none) %0, ptr noundef readonly captures(none) %1) local_unnamed_addr #7 {
  %3 = getelementptr inbounds nuw i8, ptr %0, i64 8
  %4 = load i64, ptr %3, align 8, !tbaa !11
  %5 = getelementptr inbounds nuw i8, ptr %1, i64 8
  %6 = load i64, ptr %5, align 8, !tbaa !11
  %7 = icmp ult i64 %4, %6
  br i1 %7, label %.loopexit22, label %.preheader

.preheader:                                       ; preds = %2
  %8 = icmp ult i64 %6, %4
  br i1 %8, label %.lr.ph, label %.loopexit22

.lr.ph:                                           ; preds = %.preheader
  %9 = load ptr, ptr %0, align 8, !tbaa !4
  br label %12

10:                                               ; preds = %12
  %11 = add i64 %.024, 1
  %exitcond.not = icmp eq i64 %11, %4
  br i1 %exitcond.not, label %.loopexit22, label %12, !llvm.loop !30

12:                                               ; preds = %.lr.ph, %10
  %.024 = phi i64 [ %6, %.lr.ph ], [ %11, %10 ]
  %13 = getelementptr inbounds nuw i64, ptr %9, i64 %.024
  %14 = load i64, ptr %13, align 8, !tbaa !12
  %.not = icmp eq i64 %14, 0
  br i1 %.not, label %10, label %.loopexit

.loopexit22:                                      ; preds = %10, %.preheader, %2
  %.017 = phi i64 [ %4, %2 ], [ %6, %.preheader ], [ %6, %10 ]
  %.not29 = icmp eq i64 %.017, 0
  br i1 %.not29, label %.loopexit, label %.lr.ph26

.lr.ph26:                                         ; preds = %.loopexit22
  %15 = load ptr, ptr %0, align 8, !tbaa !4
  %16 = load ptr, ptr %1, align 8, !tbaa !4
  br label %19

17:                                               ; preds = %19
  %18 = add nuw i64 %.125, 1
  %exitcond31.not = icmp eq i64 %18, %.017
  br i1 %exitcond31.not, label %.loopexit, label %19, !llvm.loop !31

19:                                               ; preds = %.lr.ph26, %17
  %.125 = phi i64 [ 0, %.lr.ph26 ], [ %18, %17 ]
  %20 = getelementptr inbounds nuw i64, ptr %15, i64 %.125
  %21 = load i64, ptr %20, align 8, !tbaa !12
  %22 = getelementptr inbounds nuw i64, ptr %16, i64 %.125
  %23 = load i64, ptr %22, align 8, !tbaa !12
  %24 = xor i64 %23, -1
  %25 = and i64 %21, %24
  %.not21 = icmp eq i64 %25, 0
  br i1 %.not21, label %17, label %.loopexit

.loopexit:                                        ; preds = %12, %19, %17, %.loopexit22
  %.018 = phi i32 [ 0, %.loopexit22 ], [ 1, %19 ], [ 0, %17 ], [ 1, %12 ]
  ret i32 %.018
}